#include <math.h>
#include <stdio.h>
#include <stdlib.h>
#include <string.h>

int f(int x,int y)
{
	int a,n=0;
	for(a=y;a<=sqrt(x);a++)
	{
		if(x%a==0)
		{
			n++;
			n+=f(x/a,a);
		}	
	}
	return n;
}
int main()
{
	int m,i;
	scanf("%d",&m);
	int x[m],n[m];
	for(i=0;i<m;i++)
	{	
		scanf("%d",&x[i]);
		n[i]=1+f(x[i],2);
	}
	for(i=0;i<m;i++)
	{
		printf("%d\n",n[i]);	
	}
	return 0;
}
